target datalayout = "e-m:e-p270:32:32-p271:32:32-p272:64:64-i64:64-i128:128-f80:128-n8:16:32:64-S128"
target triple = "x86_64-pc-linux-gnu"

@l_Char_utf8Size___closed__1 = internal global i32 0, align 4
@l_Char_utf8Size___closed__2 = internal global i32 0, align 4
@l_Char_utf8Size___closed__3 = internal global i32 0, align 4

; Function Attrs: inlinehint nounwind uwtable
define internal ptr @lean_box(i64 noundef %0) #0 {
  %2 = alloca i64, align 8
  store i64 %0, ptr %2, align 8, !tbaa !12
  %3 = load i64, ptr %2, align 8, !tbaa !12
  %4 = shl i64 %3, 1
  %5 = or i64 %4, 1
  %6 = inttoptr i64 %5 to ptr
  ret ptr %6
}

; Function Attrs: inlinehint nounwind uwtable
define internal ptr @lean_usize_to_nat(i64 noundef %0) #0 {
  %2 = alloca ptr, align 8
  %3 = alloca i64, align 8
  store i64 %0, ptr %3, align 8, !tbaa !12
  %4 = load i64, ptr %3, align 8, !tbaa !12
  %5 = icmp ule i64 %4, 9223372036854775807
  %6 = zext i1 %5 to i32
  %7 = sext i32 %6 to i64
  %8 = call i64 @llvm.expect.i64(i64 %7, i64 1)
  %9 = icmp ne i64 %8, 0
  br i1 %9, label %10, label %13

10:                                               ; preds = %1
  %11 = load i64, ptr %3, align 8, !tbaa !12
  %12 = call ptr @lean_box(i64 noundef %11)
  store ptr %12, ptr %2, align 8
  br label %16

13:                                               ; preds = %1
  %14 = load i64, ptr %3, align 8, !tbaa !12
  %15 = call ptr @lean_big_usize_to_nat(i64 noundef %14)
  store ptr %15, ptr %2, align 8
  br label %16

16:                                               ; preds = %13, %10
  %17 = load ptr, ptr %2, align 8
  ret ptr %17
}

; Function Attrs: inlinehint nounwind uwtable
define internal ptr @lean_unsigned_to_nat(i32 noundef %0) #0 {
  %2 = alloca i32, align 4
  store i32 %0, ptr %2, align 4, !tbaa !10
  %3 = load i32, ptr %2, align 4, !tbaa !10
  %4 = zext i32 %3 to i64
  %5 = call ptr @lean_usize_to_nat(i64 noundef %4)
  ret ptr %5
}

; Function Attrs: inlinehint nounwind uwtable
define internal zeroext i8 @lean_uint32_dec_le(i32 noundef %0, i32 noundef %1) #0 {
  %3 = alloca i32, align 4
  %4 = alloca i32, align 4
  store i32 %0, ptr %3, align 4, !tbaa !10
  store i32 %1, ptr %4, align 4, !tbaa !10
  %5 = load i32, ptr %3, align 4, !tbaa !10
  %6 = load i32, ptr %4, align 4, !tbaa !10
  %7 = icmp ule i32 %5, %6
  %8 = zext i1 %7 to i32
  %9 = trunc i32 %8 to i8
  ret i8 %9
}

; Function Attrs: nounwind uwtable
define ptr @l_Char_utf8Size(i32 noundef %0) #2 {
  %2 = alloca ptr, align 8
  %3 = alloca i32, align 4
  %4 = alloca i32, align 4
  %5 = alloca i8, align 1
  %6 = alloca i32, align 4
  %7 = alloca i8, align 1
  %8 = alloca i32, align 4
  %9 = alloca i8, align 1
  %10 = alloca ptr, align 8
  %11 = alloca i32, align 4
  %12 = alloca ptr, align 8
  %13 = alloca ptr, align 8
  %14 = alloca ptr, align 8
  store i32 %0, ptr %3, align 4, !tbaa !10
  br label %15

15:                                               ; preds = %1
  call void @llvm.lifetime.start.p0(i64 4, ptr %4) #8
  call void @llvm.lifetime.start.p0(i64 1, ptr %5) #8
  %16 = load i32, ptr @l_Char_utf8Size___closed__1, align 4, !tbaa !10
  store i32 %16, ptr %4, align 4, !tbaa !10
  %17 = load i32, ptr %3, align 4, !tbaa !10
  %18 = load i32, ptr %4, align 4, !tbaa !10
  %19 = call zeroext i8 @lean_uint32_dec_le(i32 noundef %17, i32 noundef %18)
  store i8 %19, ptr %5, align 1, !tbaa !14
  %20 = load i8, ptr %5, align 1, !tbaa !14
  %21 = zext i8 %20 to i32
  %22 = icmp eq i32 %21, 0
  br i1 %22, label %23, label %50

23:                                               ; preds = %15
  call void @llvm.lifetime.start.p0(i64 4, ptr %6) #8
  call void @llvm.lifetime.start.p0(i64 1, ptr %7) #8
  %24 = load i32, ptr @l_Char_utf8Size___closed__2, align 4, !tbaa !10
  store i32 %24, ptr %6, align 4, !tbaa !10
  %25 = load i32, ptr %3, align 4, !tbaa !10
  %26 = load i32, ptr %6, align 4, !tbaa !10
  %27 = call zeroext i8 @lean_uint32_dec_le(i32 noundef %25, i32 noundef %26)
  store i8 %27, ptr %7, align 1, !tbaa !14
  %28 = load i8, ptr %7, align 1, !tbaa !14
  %29 = zext i8 %28 to i32
  %30 = icmp eq i32 %29, 0
  br i1 %30, label %31, label %46

31:                                               ; preds = %23
  call void @llvm.lifetime.start.p0(i64 4, ptr %8) #8
  call void @llvm.lifetime.start.p0(i64 1, ptr %9) #8
  %32 = load i32, ptr @l_Char_utf8Size___closed__3, align 4, !tbaa !10
  store i32 %32, ptr %8, align 4, !tbaa !10
  %33 = load i32, ptr %3, align 4, !tbaa !10
  %34 = load i32, ptr %8, align 4, !tbaa !10
  %35 = call zeroext i8 @lean_uint32_dec_le(i32 noundef %33, i32 noundef %34)
  store i8 %35, ptr %9, align 1, !tbaa !14
  %36 = load i8, ptr %9, align 1, !tbaa !14
  %37 = zext i8 %36 to i32
  %38 = icmp eq i32 %37, 0
  br i1 %38, label %39, label %42

39:                                               ; preds = %31
  call void @llvm.lifetime.start.p0(i64 8, ptr %10) #8
  %40 = call ptr @lean_unsigned_to_nat(i32 noundef 4)
  store ptr %40, ptr %10, align 8, !tbaa !8
  %41 = load ptr, ptr %10, align 8, !tbaa !8
  store ptr %41, ptr %2, align 8
  store i32 1, ptr %11, align 4
  call void @llvm.lifetime.end.p0(i64 8, ptr %10) #8
  br label %45

42:                                               ; preds = %31
  call void @llvm.lifetime.start.p0(i64 8, ptr %12) #8
  %43 = call ptr @lean_unsigned_to_nat(i32 noundef 3)
  store ptr %43, ptr %12, align 8, !tbaa !8
  %44 = load ptr, ptr %12, align 8, !tbaa !8
  store ptr %44, ptr %2, align 8
  store i32 1, ptr %11, align 4
  call void @llvm.lifetime.end.p0(i64 8, ptr %12) #8
  br label %45

45:                                               ; preds = %42, %39
  call void @llvm.lifetime.end.p0(i64 1, ptr %9) #8
  call void @llvm.lifetime.end.p0(i64 4, ptr %8) #8
  br label %49

46:                                               ; preds = %23
  call void @llvm.lifetime.start.p0(i64 8, ptr %13) #8
  %47 = call ptr @lean_unsigned_to_nat(i32 noundef 2)
  store ptr %47, ptr %13, align 8, !tbaa !8
  %48 = load ptr, ptr %13, align 8, !tbaa !8
  store ptr %48, ptr %2, align 8
  store i32 1, ptr %11, align 4
  call void @llvm.lifetime.end.p0(i64 8, ptr %13) #8
  br label %49

49:                                               ; preds = %46, %45
  call void @llvm.lifetime.end.p0(i64 1, ptr %7) #8
  call void @llvm.lifetime.end.p0(i64 4, ptr %6) #8
  br label %53

50:                                               ; preds = %15
  call void @llvm.lifetime.start.p0(i64 8, ptr %14) #8
  %51 = call ptr @lean_unsigned_to_nat(i32 noundef 1)
  store ptr %51, ptr %14, align 8, !tbaa !8
  %52 = load ptr, ptr %14, align 8, !tbaa !8
  store ptr %52, ptr %2, align 8
  store i32 1, ptr %11, align 4
  call void @llvm.lifetime.end.p0(i64 8, ptr %14) #8
  br label %53

53:                                               ; preds = %50, %49
  call void @llvm.lifetime.end.p0(i64 1, ptr %5) #8
  call void @llvm.lifetime.end.p0(i64 4, ptr %4) #8
  %54 = load ptr, ptr %2, align 8
  ret ptr %54
}