; Function Attrs: mustprogress nofree norecurse nosync nounwind willreturn memory(read, argmem: none, inaccessiblemem: none) uwtable
define nonnull ptr @l_Char_utf8Size(i32 noundef %0) local_unnamed_addr #5 {
  %.b = load i1, ptr @l_Char_utf8Size___closed__1, align 4
  %2 = select i1 %.b, i32 127, i32 0
  %.not = icmp ugt i32 %0, %2
  br i1 %.not, label %3, label %7

3:                                                ; preds = %1
  %.b15 = load i1, ptr @l_Char_utf8Size___closed__2, align 4
  %4 = select i1 %.b15, i32 2047, i32 0
  %.not13 = icmp ugt i32 %0, %4
  br i1 %.not13, label %5, label %7

5:                                                ; preds = %3
  %.b16 = load i1, ptr @l_Char_utf8Size___closed__3, align 4
  %6 = select i1 %.b16, i32 65535, i32 0
  %.not14 = icmp ugt i32 %0, %6
  %spec.select = select i1 %.not14, ptr inttoptr (i64 9 to ptr), ptr inttoptr (i64 7 to ptr)
  br label %7

7:                                                ; preds = %5, %1, %3
  %.2 = phi ptr [ inttoptr (i64 5 to ptr), %3 ], [ inttoptr (i64 3 to ptr), %1 ], [ %spec.select, %5 ]
  ret ptr %.2
}